target datalayout = "e-m:e-p270:32:32-p271:32:32-p272:64:64-i64:64-i128:128-f80:128-n8:16:32:64-S128"
target triple = "x86_64-pc-linux-gnu"

%"class.opt::lns" = type { ptr, ptr, ptr, %class.random_gen, %class.ref_vector, %class.ref_vector, i32, i32, i8, i8, i32, %class.rational, %class.ref, %class.scoped_ptr, %class.vector.0, %class.obj_mark, %class.obj_mark }
%class.random_gen = type { i32 }
%class.ref_vector = type { %class.ref_vector_core }
%class.ref_vector_core = type { %class.ref_manager_wrapper, %class.ptr_vector }
%class.ref_manager_wrapper = type { ptr }
%class.ptr_vector = type { %class.vector }
%class.vector = type { ptr }
%class.rational = type { %class.mpq }
%class.mpq = type { %class.mpz, %class.mpz }
%class.mpz = type { i32, i8, ptr }
%class.ref = type { ptr }
%class.scoped_ptr = type { ptr }
%class.vector.0 = type { ptr }
%class.obj_mark = type { [8 x i8], %class.bit_vector }
%class.bit_vector = type { i32, i32, ptr }
%class.params_ref = type { ptr }
%class.symbol = type { ptr }

@.str = private unnamed_addr constant [6 x i8] c"phase\00", align 1
@.str.5 = private unnamed_addr constant [7 x i8] c"frozen\00", align 1
@.str.6 = private unnamed_addr constant [16 x i8] c"restart.initial\00", align 1
@.str.7 = private unnamed_addr constant [14 x i8] c"max_conflicts\00", align 1
@.str.8 = private unnamed_addr constant [15 x i8] c"simplify.delay\00", align 1

; Function Attrs: mustprogress nounwind uwtable
define linkonce_odr hidden void @_ZN10params_refC2Ev(ptr noundef nonnull align 8 dereferenceable(8) %0) unnamed_addr #4 comdat align 2 {
  %2 = alloca ptr, align 8
  store ptr %0, ptr %2, align 8, !tbaa !92
  %3 = load ptr, ptr %2, align 8
  %4 = getelementptr inbounds nuw %class.params_ref, ptr %3, i32 0, i32 0
  store ptr null, ptr %4, align 8, !tbaa !94
  ret void
}

; Function Attrs: mustprogress uwtable
define hidden void @_ZN3opt3lns14set_lns_paramsEv(ptr noundef nonnull align 8 dereferenceable(184) %0) #6 align 2 personality ptr @__gxx_personality_v0 {
  %2 = alloca ptr, align 8
  %3 = alloca %class.params_ref, align 8
  %4 = alloca %class.symbol, align 8
  %5 = alloca ptr, align 8
  %6 = alloca i32, align 4
  store ptr %0, ptr %2, align 8, !tbaa !28
  %7 = load ptr, ptr %2, align 8
  call void @llvm.lifetime.start.p0(i64 8, ptr %3) #3
  call void @_ZN10params_refC2Ev(ptr noundef nonnull align 8 dereferenceable(8) %3) #3
  call void @llvm.lifetime.start.p0(i64 8, ptr %4) #3
  invoke void @_ZN6symbolC1EPKc(ptr noundef nonnull align 8 dereferenceable(8) %4, ptr noundef @.str.5)
          to label %8 unwind label %21

8:                                                ; preds = %1
  invoke void @_ZN10params_ref7set_symEPKcRK6symbol(ptr noundef nonnull align 8 dereferenceable(8) %3, ptr noundef @.str, ptr noundef nonnull align 8 dereferenceable(8) %4)
          to label %9 unwind label %21

9:                                                ; preds = %8
  call void @llvm.lifetime.end.p0(i64 8, ptr %4) #3
  invoke void @_ZN10params_ref8set_uintEPKcj(ptr noundef nonnull align 8 dereferenceable(8) %3, ptr noundef @.str.6, i32 noundef 1000000)
          to label %10 unwind label %25

10:                                               ; preds = %9
  %11 = getelementptr inbounds nuw %"class.opt::lns", ptr %7, i32 0, i32 6
  %12 = load i32, ptr %11, align 8, !tbaa !62
  invoke void @_ZN10params_ref8set_uintEPKcj(ptr noundef nonnull align 8 dereferenceable(8) %3, ptr noundef @.str.7, i32 noundef %12)
          to label %13 unwind label %25

13:                                               ; preds = %10
  invoke void @_ZN10params_ref8set_uintEPKcj(ptr noundef nonnull align 8 dereferenceable(8) %3, ptr noundef @.str.8, i32 noundef 1000000)
          to label %14 unwind label %25

14:                                               ; preds = %13
  %15 = getelementptr inbounds nuw %"class.opt::lns", ptr %7, i32 0, i32 1
  %16 = load ptr, ptr %15, align 8, !tbaa !91
  %17 = load ptr, ptr %16, align 8, !tbaa !34
  %18 = getelementptr inbounds ptr, ptr %17, i64 11
  %19 = load ptr, ptr %18, align 8
  invoke void %19(ptr noundef nonnull align 8 dereferenceable(96) %16, ptr noundef nonnull align 8 dereferenceable(8) %3)
          to label %20 unwind label %25

20:                                               ; preds = %14
  call void @_ZN10params_refD1Ev(ptr noundef nonnull align 8 dereferenceable(8) %3) #3
  call void @llvm.lifetime.end.p0(i64 8, ptr %3) #3
  ret void

21:                                               ; preds = %8, %1
  %22 = landingpad { ptr, i32 }
          cleanup
  %23 = extractvalue { ptr, i32 } %22, 0
  store ptr %23, ptr %5, align 8
  %24 = extractvalue { ptr, i32 } %22, 1
  store i32 %24, ptr %6, align 4
  call void @llvm.lifetime.end.p0(i64 8, ptr %4) #3
  br label %29

25:                                               ; preds = %14, %13, %10, %9
  %26 = landingpad { ptr, i32 }
          cleanup
  %27 = extractvalue { ptr, i32 } %26, 0
  store ptr %27, ptr %5, align 8
  %28 = extractvalue { ptr, i32 } %26, 1
  store i32 %28, ptr %6, align 4
  br label %29

29:                                               ; preds = %25, %21
  call void @_ZN10params_refD1Ev(ptr noundef nonnull align 8 dereferenceable(8) %3) #3
  call void @llvm.lifetime.end.p0(i64 8, ptr %3) #3
  br label %30

30:                                               ; preds = %29
  %31 = load ptr, ptr %5, align 8
  %32 = load i32, ptr %6, align 4
  %33 = insertvalue { ptr, i32 } poison, ptr %31, 0
  %34 = insertvalue { ptr, i32 } %33, i32 %32, 1
  resume { ptr, i32 } %34
}