; Function Attrs: mustprogress uwtable
define hidden void @_ZN3opt3lns14set_lns_paramsEv(ptr noundef nonnull readonly align 8 captures(none) dereferenceable(184) %0) local_unnamed_addr #4 align 2 personality ptr @__gxx_personality_v0 {
  %2 = alloca %class.params_ref, align 8
  %3 = alloca %class.symbol, align 8
  call void @llvm.lifetime.start.p0(i64 8, ptr nonnull %2) #20
  store ptr null, ptr %2, align 8, !tbaa !71
  call void @llvm.lifetime.start.p0(i64 8, ptr nonnull %3) #20
  invoke void @_ZN6symbolC1EPKc(ptr noundef nonnull align 8 dereferenceable(8) %3, ptr noundef nonnull @.str.5)
          to label %4 unwind label %17

4:                                                ; preds = %1
  invoke void @_ZN10params_ref7set_symEPKcRK6symbol(ptr noundef nonnull align 8 dereferenceable(8) %2, ptr noundef nonnull @.str, ptr noundef nonnull align 8 dereferenceable(8) %3)
          to label %5 unwind label %17

5:                                                ; preds = %4
  call void @llvm.lifetime.end.p0(i64 8, ptr nonnull %3) #20
  invoke void @_ZN10params_ref8set_uintEPKcj(ptr noundef nonnull align 8 dereferenceable(8) %2, ptr noundef nonnull @.str.6, i32 noundef 1000000)
          to label %6 unwind label %19

6:                                                ; preds = %5
  %7 = getelementptr inbounds nuw i8, ptr %0, i64 64
  %8 = load i32, ptr %7, align 8, !tbaa !21
  invoke void @_ZN10params_ref8set_uintEPKcj(ptr noundef nonnull align 8 dereferenceable(8) %2, ptr noundef nonnull @.str.7, i32 noundef %8)
          to label %9 unwind label %19

9:                                                ; preds = %6
  invoke void @_ZN10params_ref8set_uintEPKcj(ptr noundef nonnull align 8 dereferenceable(8) %2, ptr noundef nonnull @.str.8, i32 noundef 1000000)
          to label %10 unwind label %19

10:                                               ; preds = %9
  %11 = getelementptr inbounds nuw i8, ptr %0, i64 8
  %12 = load ptr, ptr %11, align 8, !tbaa !74
  %13 = load ptr, ptr %12, align 8, !tbaa !3
  %14 = getelementptr inbounds nuw i8, ptr %13, i64 88
  %15 = load ptr, ptr %14, align 8
  invoke void %15(ptr noundef nonnull align 8 dereferenceable(96) %12, ptr noundef nonnull align 8 dereferenceable(8) %2)
          to label %16 unwind label %19

16:                                               ; preds = %10
  call void @_ZN10params_refD1Ev(ptr noundef nonnull align 8 dereferenceable(8) %2) #20
  call void @llvm.lifetime.end.p0(i64 8, ptr nonnull %2) #20
  ret void

17:                                               ; preds = %4, %1
  %18 = landingpad { ptr, i32 }
          cleanup
  call void @llvm.lifetime.end.p0(i64 8, ptr nonnull %3) #20
  br label %21

19:                                               ; preds = %10, %9, %6, %5
  %20 = landingpad { ptr, i32 }
          cleanup
  br label %21

21:                                               ; preds = %19, %17
  %.pn = phi { ptr, i32 } [ %20, %19 ], [ %18, %17 ]
  call void @_ZN10params_refD1Ev(ptr noundef nonnull align 8 dereferenceable(8) %2) #20
  call void @llvm.lifetime.end.p0(i64 8, ptr nonnull %2) #20
  resume { ptr, i32 } %.pn
}